target datalayout = "e-m:e-p270:32:32-p271:32:32-p272:64:64-i64:64-i128:128-f80:128-n8:16:32:64-S128"
target triple = "x86_64-pc-linux-gnu"

%struct.xSAT_Solver_t_ = type { ptr, ptr, ptr, ptr, ptr, i32, i32, ptr, ptr, ptr, ptr, ptr, ptr, ptr, ptr, ptr, i32, i32, i64, ptr, ptr, float, i32, i64, i32, ptr, ptr, ptr, ptr, ptr, i32, ptr, %struct.xSAT_SolverOptions_t_, %struct.xSAT_Stats_t_ }
%struct.xSAT_SolverOptions_t_ = type { i8, i64, i64, i64, double, double, i32, i32, i32, i32, i32, i32, i32 }
%struct.xSAT_Stats_t_ = type { i32, i32, i64, i64, i64, i64, i64, i64 }

@.str.8 = private unnamed_addr constant [22 x i8] c"starts        : %10d\0A\00", align 1
@.str.9 = private unnamed_addr constant [23 x i8] c"conflicts     : %10ld\0A\00", align 1
@.str.10 = private unnamed_addr constant [23 x i8] c"decisions     : %10ld\0A\00", align 1
@.str.11 = private unnamed_addr constant [23 x i8] c"propagations  : %10ld\0A\00", align 1

; Function Attrs: nounwind uwtable
define void @xSAT_SolverPrintStats(ptr noundef %0) #0 {
  %2 = alloca ptr, align 8
  store ptr %0, ptr %2, align 8, !tbaa !3
  %3 = load ptr, ptr %2, align 8, !tbaa !3
  %4 = getelementptr inbounds nuw %struct.xSAT_Solver_t_, ptr %3, i32 0, i32 33
  %5 = getelementptr inbounds nuw %struct.xSAT_Stats_t_, ptr %4, i32 0, i32 0
  %6 = load i32, ptr %5, align 8, !tbaa !119
  %7 = call i32 (ptr, ...) @printf(ptr noundef @.str.8, i32 noundef %6)
  %8 = load ptr, ptr %2, align 8, !tbaa !3
  %9 = getelementptr inbounds nuw %struct.xSAT_Solver_t_, ptr %8, i32 0, i32 33
  %10 = getelementptr inbounds nuw %struct.xSAT_Stats_t_, ptr %9, i32 0, i32 5
  %11 = load i64, ptr %10, align 8, !tbaa !120
  %12 = call i32 (ptr, ...) @printf(ptr noundef @.str.9, i64 noundef %11)
  %13 = load ptr, ptr %2, align 8, !tbaa !3
  %14 = getelementptr inbounds nuw %struct.xSAT_Solver_t_, ptr %13, i32 0, i32 33
  %15 = getelementptr inbounds nuw %struct.xSAT_Stats_t_, ptr %14, i32 0, i32 2
  %16 = load i64, ptr %15, align 8, !tbaa !121
  %17 = call i32 (ptr, ...) @printf(ptr noundef @.str.10, i64 noundef %16)
  %18 = load ptr, ptr %2, align 8, !tbaa !3
  %19 = getelementptr inbounds nuw %struct.xSAT_Solver_t_, ptr %18, i32 0, i32 33
  %20 = getelementptr inbounds nuw %struct.xSAT_Stats_t_, ptr %19, i32 0, i32 3
  %21 = load i64, ptr %20, align 8, !tbaa !122
  %22 = call i32 (ptr, ...) @printf(ptr noundef @.str.11, i64 noundef %21)
  ret void
}