; Function Attrs: nofree nounwind uwtable
define void @xSAT_SolverPrintStats(ptr noundef readonly captures(none) %0) local_unnamed_addr #7 {
  %2 = getelementptr inbounds nuw i8, ptr %0, i64 312
  %3 = load i32, ptr %2, align 8, !tbaa !108
  %4 = tail call i32 (ptr, ...) @printf(ptr noundef nonnull dereferenceable(1) @.str.8, i32 noundef %3)
  %5 = getelementptr inbounds nuw i8, ptr %0, i64 344
  %6 = load i64, ptr %5, align 8, !tbaa !109
  %7 = tail call i32 (ptr, ...) @printf(ptr noundef nonnull dereferenceable(1) @.str.9, i64 noundef %6)
  %8 = getelementptr inbounds nuw i8, ptr %0, i64 320
  %9 = load i64, ptr %8, align 8, !tbaa !110
  %10 = tail call i32 (ptr, ...) @printf(ptr noundef nonnull dereferenceable(1) @.str.10, i64 noundef %9)
  %11 = getelementptr inbounds nuw i8, ptr %0, i64 328
  %12 = load i64, ptr %11, align 8, !tbaa !111
  %13 = tail call i32 (ptr, ...) @printf(ptr noundef nonnull dereferenceable(1) @.str.11, i64 noundef %12)
  ret void
}